target datalayout = "e-m:e-p270:32:32-p271:32:32-p272:64:64-i64:64-i128:128-f80:128-n8:16:32:64-S128"
target triple = "x86_64-pc-linux-gnu"

%struct.AVFilterContext = type { ptr, ptr, ptr, ptr, ptr, i32, ptr, ptr, i32, ptr, ptr, i32, i32, ptr, ptr, ptr, ptr, i32, ptr, i32, i32 }
%struct.LUT2Context = type { ptr, %struct.FFFrameSync, i32, [4 x ptr], [4 x ptr], [6 x double], [4 x ptr], [4 x i32], [4 x i32], [4 x i32], [4 x i32], [4 x i32], [4 x i32], i32, i32, i32, i32, i32, i32, i32, ptr, ptr }
%struct.FFFrameSync = type { ptr, ptr, i32, %struct.AVRational, i64, ptr, ptr, i32, i32, i8, i8, ptr, i32, i32, i32, i32 }
%struct.AVRational = type { i32, i32 }
%struct.AVChannelLayout = type { i32, i32, %union.anon.1, ptr }
%union.anon.1 = type { i64 }
%struct.ThreadData = type { ptr, ptr, ptr }
%struct.AVFrame = type { [8 x ptr], [8 x i32], ptr, i32, i32, i32, i32, i32, %struct.AVRational, i64, i64, %struct.AVRational, i32, ptr, i32, i32, [8 x ptr], ptr, i32, ptr, i32, i32, i32, i32, i32, i32, i32, i64, ptr, i32, ptr, ptr, i64, i64, i64, i64, ptr, %struct.AVChannelLayout, i64 }

; Function Attrs: alwaysinline nounwind willreturn memory(none) uwtable
define internal i32 @av_clip_uintp2_c(i32 noundef %0, i32 noundef %1) #10 {
  %3 = alloca i32, align 4
  %4 = alloca i32, align 4
  %5 = alloca i32, align 4
  store i32 %0, ptr %4, align 4, !tbaa !24
  store i32 %1, ptr %5, align 4, !tbaa !24
  %6 = load i32, ptr %4, align 4, !tbaa !24
  %7 = load i32, ptr %5, align 4, !tbaa !24
  %8 = shl i32 1, %7
  %9 = sub i32 %8, 1
  %10 = xor i32 %9, -1
  %11 = and i32 %6, %10
  %12 = icmp ne i32 %11, 0
  br i1 %12, label %13, label %21

13:                                               ; preds = %2
  %14 = load i32, ptr %4, align 4, !tbaa !24
  %15 = xor i32 %14, -1
  %16 = ashr i32 %15, 31
  %17 = load i32, ptr %5, align 4, !tbaa !24
  %18 = shl i32 1, %17
  %19 = sub i32 %18, 1
  %20 = and i32 %16, %19
  store i32 %20, ptr %3, align 4
  br label %23

21:                                               ; preds = %2
  %22 = load i32, ptr %4, align 4, !tbaa !24
  store i32 %22, ptr %3, align 4
  br label %23

23:                                               ; preds = %21, %13
  %24 = load i32, ptr %3, align 4
  ret i32 %24
}

; Function Attrs: nounwind uwtable
define internal i32 @lut2_16_8_8(ptr noundef %0, ptr noundef %1, i32 noundef %2, i32 noundef %3) #0 {
  %5 = alloca ptr, align 8
  %6 = alloca ptr, align 8
  %7 = alloca i32, align 4
  %8 = alloca i32, align 4
  %9 = alloca ptr, align 8
  %10 = alloca ptr, align 8
  %11 = alloca ptr, align 8
  %12 = alloca ptr, align 8
  %13 = alloca ptr, align 8
  %14 = alloca i32, align 4
  %15 = alloca i32, align 4
  %16 = alloca i32, align 4
  %17 = alloca i32, align 4
  %18 = alloca i32, align 4
  %19 = alloca i32, align 4
  %20 = alloca ptr, align 8
  %21 = alloca ptr, align 8
  %22 = alloca ptr, align 8
  %23 = alloca ptr, align 8
  store ptr %0, ptr %5, align 8, !tbaa !4
  store ptr %1, ptr %6, align 8, !tbaa !41
  store i32 %2, ptr %7, align 4, !tbaa !24
  store i32 %3, ptr %8, align 4, !tbaa !24
  call void @llvm.lifetime.start.p0(i64 8, ptr %9) #12
  %24 = load ptr, ptr %5, align 8, !tbaa !4
  %25 = getelementptr inbounds nuw %struct.AVFilterContext, ptr %24, i32 0, i32 9
  %26 = load ptr, ptr %25, align 8, !tbaa !9
  store ptr %26, ptr %9, align 8, !tbaa !22
  call void @llvm.lifetime.start.p0(i64 8, ptr %10) #12
  %27 = load ptr, ptr %6, align 8, !tbaa !41
  store ptr %27, ptr %10, align 8, !tbaa !116
  call void @llvm.lifetime.start.p0(i64 8, ptr %11) #12
  %28 = load ptr, ptr %10, align 8, !tbaa !116
  %29 = getelementptr inbounds nuw %struct.ThreadData, ptr %28, i32 0, i32 0
  %30 = load ptr, ptr %29, align 8, !tbaa !96
  store ptr %30, ptr %11, align 8, !tbaa !94
  call void @llvm.lifetime.start.p0(i64 8, ptr %12) #12
  %31 = load ptr, ptr %10, align 8, !tbaa !116
  %32 = getelementptr inbounds nuw %struct.ThreadData, ptr %31, i32 0, i32 1
  %33 = load ptr, ptr %32, align 8, !tbaa !98
  store ptr %33, ptr %12, align 8, !tbaa !94
  call void @llvm.lifetime.start.p0(i64 8, ptr %13) #12
  %34 = load ptr, ptr %10, align 8, !tbaa !116
  %35 = getelementptr inbounds nuw %struct.ThreadData, ptr %34, i32 0, i32 2
  %36 = load ptr, ptr %35, align 8, !tbaa !99
  store ptr %36, ptr %13, align 8, !tbaa !94
  call void @llvm.lifetime.start.p0(i64 4, ptr %14) #12
  %37 = load ptr, ptr %9, align 8, !tbaa !22
  %38 = getelementptr inbounds nuw %struct.LUT2Context, ptr %37, i32 0, i32 2
  %39 = load i32, ptr %38, align 8, !tbaa !38
  store i32 %39, ptr %14, align 4, !tbaa !24
  call void @llvm.lifetime.start.p0(i64 4, ptr %15) #12
  call void @llvm.lifetime.start.p0(i64 4, ptr %16) #12
  call void @llvm.lifetime.start.p0(i64 4, ptr %17) #12
  store i32 0, ptr %15, align 4, !tbaa !24
  br label %40

40:                                               ; preds = %205, %4
  %41 = load i32, ptr %15, align 4, !tbaa !24
  %42 = load ptr, ptr %9, align 8, !tbaa !22
  %43 = getelementptr inbounds nuw %struct.LUT2Context, ptr %42, i32 0, i32 15
  %44 = load i32, ptr %43, align 8, !tbaa !77
  %45 = icmp slt i32 %41, %44
  br i1 %45, label %46, label %208

46:                                               ; preds = %40
  call void @llvm.lifetime.start.p0(i64 4, ptr %18) #12
  %47 = load ptr, ptr %9, align 8, !tbaa !22
  %48 = getelementptr inbounds nuw %struct.LUT2Context, ptr %47, i32 0, i32 10
  %49 = load i32, ptr %15, align 4, !tbaa !24
  %50 = sext i32 %49 to i64
  %51 = getelementptr inbounds [4 x i32], ptr %48, i64 0, i64 %50
  %52 = load i32, ptr %51, align 4, !tbaa !24
  %53 = load i32, ptr %7, align 4, !tbaa !24
  %54 = mul nsw i32 %52, %53
  %55 = load i32, ptr %8, align 4, !tbaa !24
  %56 = sdiv i32 %54, %55
  store i32 %56, ptr %18, align 4, !tbaa !24
  call void @llvm.lifetime.start.p0(i64 4, ptr %19) #12
  %57 = load ptr, ptr %9, align 8, !tbaa !22
  %58 = getelementptr inbounds nuw %struct.LUT2Context, ptr %57, i32 0, i32 10
  %59 = load i32, ptr %15, align 4, !tbaa !24
  %60 = sext i32 %59 to i64
  %61 = getelementptr inbounds [4 x i32], ptr %58, i64 0, i64 %60
  %62 = load i32, ptr %61, align 4, !tbaa !24
  %63 = load i32, ptr %7, align 4, !tbaa !24
  %64 = add nsw i32 %63, 1
  %65 = mul nsw i32 %62, %64
  %66 = load i32, ptr %8, align 4, !tbaa !24
  %67 = sdiv i32 %65, %66
  store i32 %67, ptr %19, align 4, !tbaa !24
  call void @llvm.lifetime.start.p0(i64 8, ptr %20) #12
  %68 = load ptr, ptr %9, align 8, !tbaa !22
  %69 = getelementptr inbounds nuw %struct.LUT2Context, ptr %68, i32 0, i32 6
  %70 = load i32, ptr %15, align 4, !tbaa !24
  %71 = sext i32 %70 to i64
  %72 = getelementptr inbounds [4 x ptr], ptr %69, i64 0, i64 %71
  %73 = load ptr, ptr %72, align 8, !tbaa !108
  store ptr %73, ptr %20, align 8, !tbaa !108
  call void @llvm.lifetime.start.p0(i64 8, ptr %21) #12
  call void @llvm.lifetime.start.p0(i64 8, ptr %22) #12
  call void @llvm.lifetime.start.p0(i64 8, ptr %23) #12
  %74 = load ptr, ptr %11, align 8, !tbaa !94
  %75 = getelementptr inbounds nuw %struct.AVFrame, ptr %74, i32 0, i32 0
  %76 = load i32, ptr %15, align 4, !tbaa !24
  %77 = sext i32 %76 to i64
  %78 = getelementptr inbounds [8 x ptr], ptr %75, i64 0, i64 %77
  %79 = load ptr, ptr %78, align 8, !tbaa !42
  %80 = load i32, ptr %18, align 4, !tbaa !24
  %81 = load ptr, ptr %11, align 8, !tbaa !94
  %82 = getelementptr inbounds nuw %struct.AVFrame, ptr %81, i32 0, i32 1
  %83 = load i32, ptr %15, align 4, !tbaa !24
  %84 = sext i32 %83 to i64
  %85 = getelementptr inbounds [8 x i32], ptr %82, i64 0, i64 %84
  %86 = load i32, ptr %85, align 4, !tbaa !24
  %87 = mul nsw i32 %80, %86
  %88 = sext i32 %87 to i64
  %89 = getelementptr inbounds i8, ptr %79, i64 %88
  store ptr %89, ptr %23, align 8, !tbaa !108
  %90 = load ptr, ptr %12, align 8, !tbaa !94
  %91 = getelementptr inbounds nuw %struct.AVFrame, ptr %90, i32 0, i32 0
  %92 = load i32, ptr %15, align 4, !tbaa !24
  %93 = sext i32 %92 to i64
  %94 = getelementptr inbounds [8 x ptr], ptr %91, i64 0, i64 %93
  %95 = load ptr, ptr %94, align 8, !tbaa !42
  %96 = load i32, ptr %18, align 4, !tbaa !24
  %97 = load ptr, ptr %12, align 8, !tbaa !94
  %98 = getelementptr inbounds nuw %struct.AVFrame, ptr %97, i32 0, i32 1
  %99 = load i32, ptr %15, align 4, !tbaa !24
  %100 = sext i32 %99 to i64
  %101 = getelementptr inbounds [8 x i32], ptr %98, i64 0, i64 %100
  %102 = load i32, ptr %101, align 4, !tbaa !24
  %103 = mul nsw i32 %96, %102
  %104 = sext i32 %103 to i64
  %105 = getelementptr inbounds i8, ptr %95, i64 %104
  store ptr %105, ptr %21, align 8, !tbaa !42
  %106 = load ptr, ptr %13, align 8, !tbaa !94
  %107 = getelementptr inbounds nuw %struct.AVFrame, ptr %106, i32 0, i32 0
  %108 = load i32, ptr %15, align 4, !tbaa !24
  %109 = sext i32 %108 to i64
  %110 = getelementptr inbounds [8 x ptr], ptr %107, i64 0, i64 %109
  %111 = load ptr, ptr %110, align 8, !tbaa !42
  %112 = load i32, ptr %18, align 4, !tbaa !24
  %113 = load ptr, ptr %13, align 8, !tbaa !94
  %114 = getelementptr inbounds nuw %struct.AVFrame, ptr %113, i32 0, i32 1
  %115 = load i32, ptr %15, align 4, !tbaa !24
  %116 = sext i32 %115 to i64
  %117 = getelementptr inbounds [8 x i32], ptr %114, i64 0, i64 %116
  %118 = load i32, ptr %117, align 4, !tbaa !24
  %119 = mul nsw i32 %112, %118
  %120 = sext i32 %119 to i64
  %121 = getelementptr inbounds i8, ptr %111, i64 %120
  store ptr %121, ptr %22, align 8, !tbaa !42
  %122 = load i32, ptr %18, align 4, !tbaa !24
  store i32 %122, ptr %16, align 4, !tbaa !24
  br label %123

123:                                              ; preds = %201, %46
  %124 = load i32, ptr %16, align 4, !tbaa !24
  %125 = load i32, ptr %19, align 4, !tbaa !24
  %126 = icmp slt i32 %124, %125
  br i1 %126, label %127, label %204

127:                                              ; preds = %123
  store i32 0, ptr %17, align 4, !tbaa !24
  br label %128

128:                                              ; preds = %167, %127
  %129 = load i32, ptr %17, align 4, !tbaa !24
  %130 = load ptr, ptr %9, align 8, !tbaa !22
  %131 = getelementptr inbounds nuw %struct.LUT2Context, ptr %130, i32 0, i32 9
  %132 = load i32, ptr %15, align 4, !tbaa !24
  %133 = sext i32 %132 to i64
  %134 = getelementptr inbounds [4 x i32], ptr %131, i64 0, i64 %133
  %135 = load i32, ptr %134, align 4, !tbaa !24
  %136 = icmp slt i32 %129, %135
  br i1 %136, label %137, label %170

137:                                              ; preds = %128
  %138 = load ptr, ptr %20, align 8, !tbaa !108
  %139 = load ptr, ptr %22, align 8, !tbaa !42
  %140 = load i32, ptr %17, align 4, !tbaa !24
  %141 = sext i32 %140 to i64
  %142 = getelementptr inbounds i8, ptr %139, i64 %141
  %143 = load i8, ptr %142, align 1, !tbaa !121
  %144 = zext i8 %143 to i32
  %145 = load ptr, ptr %9, align 8, !tbaa !22
  %146 = getelementptr inbounds nuw %struct.LUT2Context, ptr %145, i32 0, i32 17
  %147 = load i32, ptr %146, align 8, !tbaa !69
  %148 = shl i32 %144, %147
  %149 = load ptr, ptr %21, align 8, !tbaa !42
  %150 = load i32, ptr %17, align 4, !tbaa !24
  %151 = sext i32 %150 to i64
  %152 = getelementptr inbounds i8, ptr %149, i64 %151
  %153 = load i8, ptr %152, align 1, !tbaa !121
  %154 = zext i8 %153 to i32
  %155 = or i32 %148, %154
  %156 = sext i32 %155 to i64
  %157 = getelementptr inbounds i16, ptr %138, i64 %156
  %158 = load i16, ptr %157, align 2, !tbaa !111
  %159 = zext i16 %158 to i32
  %160 = load i32, ptr %14, align 4, !tbaa !24
  %161 = call i32 @av_clip_uintp2_c(i32 noundef %159, i32 noundef %160) #15
  %162 = trunc i32 %161 to i16
  %163 = load ptr, ptr %23, align 8, !tbaa !108
  %164 = load i32, ptr %17, align 4, !tbaa !24
  %165 = sext i32 %164 to i64
  %166 = getelementptr inbounds i16, ptr %163, i64 %165
  store i16 %162, ptr %166, align 2, !tbaa !111
  br label %167

167:                                              ; preds = %137
  %168 = load i32, ptr %17, align 4, !tbaa !24
  %169 = add nsw i32 %168, 1
  store i32 %169, ptr %17, align 4, !tbaa !24
  br label %128, !llvm.loop !125

170:                                              ; preds = %128
  %171 = load ptr, ptr %11, align 8, !tbaa !94
  %172 = getelementptr inbounds nuw %struct.AVFrame, ptr %171, i32 0, i32 1
  %173 = load i32, ptr %15, align 4, !tbaa !24
  %174 = sext i32 %173 to i64
  %175 = getelementptr inbounds [8 x i32], ptr %172, i64 0, i64 %174
  %176 = load i32, ptr %175, align 4, !tbaa !24
  %177 = sdiv i32 %176, 2
  %178 = load ptr, ptr %23, align 8, !tbaa !108
  %179 = sext i32 %177 to i64
  %180 = getelementptr inbounds i16, ptr %178, i64 %179
  store ptr %180, ptr %23, align 8, !tbaa !108
  %181 = load ptr, ptr %12, align 8, !tbaa !94
  %182 = getelementptr inbounds nuw %struct.AVFrame, ptr %181, i32 0, i32 1
  %183 = load i32, ptr %15, align 4, !tbaa !24
  %184 = sext i32 %183 to i64
  %185 = getelementptr inbounds [8 x i32], ptr %182, i64 0, i64 %184
  %186 = load i32, ptr %185, align 4, !tbaa !24
  %187 = sdiv i32 %186, 1
  %188 = load ptr, ptr %21, align 8, !tbaa !42
  %189 = sext i32 %187 to i64
  %190 = getelementptr inbounds i8, ptr %188, i64 %189
  store ptr %190, ptr %21, align 8, !tbaa !42
  %191 = load ptr, ptr %13, align 8, !tbaa !94
  %192 = getelementptr inbounds nuw %struct.AVFrame, ptr %191, i32 0, i32 1
  %193 = load i32, ptr %15, align 4, !tbaa !24
  %194 = sext i32 %193 to i64
  %195 = getelementptr inbounds [8 x i32], ptr %192, i64 0, i64 %194
  %196 = load i32, ptr %195, align 4, !tbaa !24
  %197 = sdiv i32 %196, 1
  %198 = load ptr, ptr %22, align 8, !tbaa !42
  %199 = sext i32 %197 to i64
  %200 = getelementptr inbounds i8, ptr %198, i64 %199
  store ptr %200, ptr %22, align 8, !tbaa !42
  br label %201

201:                                              ; preds = %170
  %202 = load i32, ptr %16, align 4, !tbaa !24
  %203 = add nsw i32 %202, 1
  store i32 %203, ptr %16, align 4, !tbaa !24
  br label %123, !llvm.loop !126

204:                                              ; preds = %123
  call void @llvm.lifetime.end.p0(i64 8, ptr %23) #12
  call void @llvm.lifetime.end.p0(i64 8, ptr %22) #12
  call void @llvm.lifetime.end.p0(i64 8, ptr %21) #12
  call void @llvm.lifetime.end.p0(i64 8, ptr %20) #12
  call void @llvm.lifetime.end.p0(i64 4, ptr %19) #12
  call void @llvm.lifetime.end.p0(i64 4, ptr %18) #12
  br label %205

205:                                              ; preds = %204
  %206 = load i32, ptr %15, align 4, !tbaa !24
  %207 = add nsw i32 %206, 1
  store i32 %207, ptr %15, align 4, !tbaa !24
  br label %40, !llvm.loop !127

208:                                              ; preds = %40
  call void @llvm.lifetime.end.p0(i64 4, ptr %17) #12
  call void @llvm.lifetime.end.p0(i64 4, ptr %16) #12
  call void @llvm.lifetime.end.p0(i64 4, ptr %15) #12
  call void @llvm.lifetime.end.p0(i64 4, ptr %14) #12
  call void @llvm.lifetime.end.p0(i64 8, ptr %13) #12
  call void @llvm.lifetime.end.p0(i64 8, ptr %12) #12
  call void @llvm.lifetime.end.p0(i64 8, ptr %11) #12
  call void @llvm.lifetime.end.p0(i64 8, ptr %10) #12
  call void @llvm.lifetime.end.p0(i64 8, ptr %9) #12
  ret i32 0
}